target datalayout = "e-m:e-p270:32:32-p271:32:32-p272:64:64-i64:64-i128:128-f80:128-n8:16:32:64-S128"
target triple = "x86_64-pc-linux-gnu"

%"class.llvm::StringRef" = type { ptr, i64 }
%"class.llvm::SmallVectorBase" = type { ptr, i32, i32 }
%"class.std::_Function_base" = type { %"union.std::_Any_data", ptr }
%"union.std::_Any_data" = type { %"union.std::_Nocopy_types" }
%"union.std::_Nocopy_types" = type { { i64, i64 } }
%"class.std::__cxx11::basic_string" = type { %"struct.std::__cxx11::basic_string<char>::_Alloc_hider", i64, %union.anon }
%"struct.std::__cxx11::basic_string<char>::_Alloc_hider" = type { ptr }
%union.anon = type { i64, [8 x i8] }
%"class.llvm::TargetLoweringObjectFile" = type { %"class.llvm::MCObjectFileInfo", ptr, i8, i8, i8, i8, i32, i32, i32, i32, ptr, ptr, ptr }
%"class.llvm::MCObjectFileInfo" = type { ptr, i8, i8, i8, i32, i32, ptr, ptr, ptr, ptr, ptr, ptr, ptr, ptr, ptr, ptr, ptr, ptr, ptr, ptr, ptr, ptr, ptr, ptr, ptr, ptr, ptr, ptr, ptr, ptr, ptr, ptr, ptr, ptr, ptr, ptr, ptr, ptr, ptr, ptr, ptr, ptr, ptr, ptr, ptr, ptr, ptr, ptr, ptr, ptr, ptr, ptr, ptr, ptr, ptr, ptr, ptr, ptr, ptr, ptr, ptr, ptr, ptr, ptr, ptr, ptr, ptr, ptr, ptr, ptr, ptr, ptr, ptr, ptr, ptr, ptr, ptr, ptr, ptr, ptr, ptr, ptr, ptr, ptr, ptr, ptr, ptr, ptr, ptr, ptr, ptr, ptr, ptr, ptr, ptr, ptr, ptr, ptr, ptr, ptr, ptr, ptr, ptr, ptr, %"struct.std::array", i8, ptr }
%"struct.std::array" = type { [11 x ptr] }
%"class.llvm::SmallVectorBase.55" = type { ptr, i64, i64 }
%"class.llvm::Triple" = type { %"class.std::__cxx11::basic_string", i32, i32, i32, i32, i32, i32 }
%"class.llvm::MCContext" = type { i32, %"class.llvm::StringRef", %"class.llvm::Triple", ptr, %"class.std::unique_ptr", %"class.std::vector", %"class.std::function.8", ptr, ptr, ptr, ptr, %"class.std::unique_ptr.10", %"class.llvm::BumpPtrAllocatorImpl", %"class.llvm::BumpPtrAllocatorImpl", %"class.llvm::SpecificBumpPtrAllocator", %"class.llvm::SpecificBumpPtrAllocator.29", %"class.llvm::SpecificBumpPtrAllocator.30", %"class.llvm::SpecificBumpPtrAllocator.31", %"class.llvm::SpecificBumpPtrAllocator.32", %"class.llvm::SpecificBumpPtrAllocator.33", %"class.llvm::SpecificBumpPtrAllocator.34", %"class.llvm::SpecificBumpPtrAllocator.35", %"class.llvm::SpecificBumpPtrAllocator.36", %"class.llvm::SpecificBumpPtrAllocator.37", %"class.llvm::StringMap", %"class.llvm::DenseMap", %"class.llvm::StringMap.39", %"class.llvm::DenseMap.40", i8, %"class.std::__cxx11::basic_string", %"class.std::unique_ptr.43", i8, %"class.llvm::SmallString", %"class.llvm::SmallVector.57", %"class.std::__cxx11::basic_string", %"class.std::map", %"class.llvm::MCDwarfLoc", i8, i8, i32, %"class.llvm::SetVector", %"class.std::vector.73", %"class.llvm::StringRef", %"class.llvm::StringRef", i16, i8, i8, i8, i32, %"class.llvm::MCPseudoProbeTable", %"class.llvm::StringMap.83", %"class.std::map.84", %"class.llvm::StringMap.90", %"class.std::map.91", %"class.std::map.97", %"class.std::map.103", %"class.llvm::StringMap.109", %"class.llvm::StringMap.110", %"class.llvm::SpecificBumpPtrAllocator.111", i8, ptr, i8, %"class.llvm::StringMap.112", %"class.llvm::DenseMap.113", %"class.llvm::DenseSet.116" }
%"class.std::unique_ptr" = type { %"struct.std::__uniq_ptr_data" }
%"struct.std::__uniq_ptr_data" = type { %"class.std::__uniq_ptr_impl" }
%"class.std::__uniq_ptr_impl" = type { %"class.std::tuple" }
%"class.std::tuple" = type { %"struct.std::_Tuple_impl" }
%"struct.std::_Tuple_impl" = type { %"struct.std::_Head_base.4" }
%"struct.std::_Head_base.4" = type { ptr }
%"class.std::vector" = type { %"struct.std::_Vector_base" }
%"struct.std::_Vector_base" = type { %"struct.std::_Vector_base<const llvm::MDNode *, std::allocator<const llvm::MDNode *>>::_Vector_impl" }
%"struct.std::_Vector_base<const llvm::MDNode *, std::allocator<const llvm::MDNode *>>::_Vector_impl" = type { %"struct.std::_Vector_base<const llvm::MDNode *, std::allocator<const llvm::MDNode *>>::_Vector_impl_data" }
%"struct.std::_Vector_base<const llvm::MDNode *, std::allocator<const llvm::MDNode *>>::_Vector_impl_data" = type { ptr, ptr, ptr }
%"class.std::function.8" = type { %"class.std::_Function_base", ptr }
%"class.std::unique_ptr.10" = type { %"struct.std::__uniq_ptr_data.11" }
%"struct.std::__uniq_ptr_data.11" = type { %"class.std::__uniq_ptr_impl.12" }
%"class.std::__uniq_ptr_impl.12" = type { %"class.std::tuple.13" }
%"class.std::tuple.13" = type { %"struct.std::_Tuple_impl.14" }
%"struct.std::_Tuple_impl.14" = type { %"struct.std::_Head_base.17" }
%"struct.std::_Head_base.17" = type { ptr }
%"class.llvm::BumpPtrAllocatorImpl" = type { ptr, ptr, %"class.llvm::SmallVector.19", %"class.llvm::SmallVector.24", i64, i64 }
%"class.llvm::SmallVector.19" = type { %"class.llvm::SmallVectorImpl.20", %"struct.llvm::SmallVectorStorage.23" }
%"class.llvm::SmallVectorImpl.20" = type { %"class.llvm::SmallVectorTemplateBase.21" }
%"class.llvm::SmallVectorTemplateBase.21" = type { %"class.llvm::SmallVectorTemplateCommon.22" }
%"class.llvm::SmallVectorTemplateCommon.22" = type { %"class.llvm::SmallVectorBase" }
%"struct.llvm::SmallVectorStorage.23" = type { [32 x i8] }
%"class.llvm::SmallVector.24" = type { %"class.llvm::SmallVectorImpl.25" }
%"class.llvm::SmallVectorImpl.25" = type { %"class.llvm::SmallVectorTemplateBase.26" }
%"class.llvm::SmallVectorTemplateBase.26" = type { %"class.llvm::SmallVectorTemplateCommon.27" }
%"class.llvm::SmallVectorTemplateCommon.27" = type { %"class.llvm::SmallVectorBase" }
%"class.llvm::SpecificBumpPtrAllocator" = type { %"class.llvm::BumpPtrAllocatorImpl" }
%"class.llvm::SpecificBumpPtrAllocator.29" = type { %"class.llvm::BumpPtrAllocatorImpl" }
%"class.llvm::SpecificBumpPtrAllocator.30" = type { %"class.llvm::BumpPtrAllocatorImpl" }
%"class.llvm::SpecificBumpPtrAllocator.31" = type { %"class.llvm::BumpPtrAllocatorImpl" }
%"class.llvm::SpecificBumpPtrAllocator.32" = type { %"class.llvm::BumpPtrAllocatorImpl" }
%"class.llvm::SpecificBumpPtrAllocator.33" = type { %"class.llvm::BumpPtrAllocatorImpl" }
%"class.llvm::SpecificBumpPtrAllocator.34" = type { %"class.llvm::BumpPtrAllocatorImpl" }
%"class.llvm::SpecificBumpPtrAllocator.35" = type { %"class.llvm::BumpPtrAllocatorImpl" }
%"class.llvm::SpecificBumpPtrAllocator.36" = type { %"class.llvm::BumpPtrAllocatorImpl" }
%"class.llvm::SpecificBumpPtrAllocator.37" = type { %"class.llvm::BumpPtrAllocatorImpl" }
%"class.llvm::StringMap" = type { %"class.llvm::StringMapImpl", %"class.llvm::detail::AllocatorHolder.38" }
%"class.llvm::StringMapImpl" = type { ptr, i32, i32, i32, i32 }
%"class.llvm::detail::AllocatorHolder.38" = type { ptr }
%"class.llvm::DenseMap" = type <{ ptr, i32, i32, i32, [4 x i8] }>
%"class.llvm::StringMap.39" = type { %"class.llvm::StringMapImpl", %"class.llvm::detail::AllocatorHolder.38" }
%"class.llvm::DenseMap.40" = type <{ ptr, i32, i32, i32, [4 x i8] }>
%"class.std::unique_ptr.43" = type { %"struct.std::__uniq_ptr_data.44" }
%"struct.std::__uniq_ptr_data.44" = type { %"class.std::__uniq_ptr_impl.45" }
%"class.std::__uniq_ptr_impl.45" = type { %"class.std::tuple.46" }
%"class.std::tuple.46" = type { %"struct.std::_Tuple_impl.47" }
%"struct.std::_Tuple_impl.47" = type { %"struct.std::_Head_base.50" }
%"struct.std::_Head_base.50" = type { ptr }
%"class.llvm::SmallString" = type { %"class.llvm::SmallVector.51" }
%"class.llvm::SmallVector.51" = type { %"class.llvm::SmallVectorImpl.52", %"struct.llvm::SmallVectorStorage.56" }
%"class.llvm::SmallVectorImpl.52" = type { %"class.llvm::SmallVectorTemplateBase.53" }
%"class.llvm::SmallVectorTemplateBase.53" = type { %"class.llvm::SmallVectorTemplateCommon.54" }
%"class.llvm::SmallVectorTemplateCommon.54" = type { %"class.llvm::SmallVectorBase.55" }
%"struct.llvm::SmallVectorStorage.56" = type { [128 x i8] }
%"class.llvm::SmallVector.57" = type { %"class.llvm::SmallVectorImpl.58" }
%"class.llvm::SmallVectorImpl.58" = type { %"class.llvm::SmallVectorTemplateBase.59" }
%"class.llvm::SmallVectorTemplateBase.59" = type { %"class.llvm::SmallVectorTemplateCommon.60" }
%"class.llvm::SmallVectorTemplateCommon.60" = type { %"class.llvm::SmallVectorBase" }
%"class.std::map" = type { %"class.std::_Rb_tree" }
%"class.std::_Rb_tree" = type { %"struct.std::_Rb_tree<unsigned int, std::pair<const unsigned int, llvm::MCDwarfLineTable>, std::_Select1st<std::pair<const unsigned int, llvm::MCDwarfLineTable>>, std::less<unsigned int>>::_Rb_tree_impl" }
%"struct.std::_Rb_tree<unsigned int, std::pair<const unsigned int, llvm::MCDwarfLineTable>, std::_Select1st<std::pair<const unsigned int, llvm::MCDwarfLineTable>>, std::less<unsigned int>>::_Rb_tree_impl" = type { [8 x i8], %"struct.std::_Rb_tree_header" }
%"struct.std::_Rb_tree_header" = type { %"struct.std::_Rb_tree_node_base", i64 }
%"struct.std::_Rb_tree_node_base" = type { i32, ptr, ptr, ptr }
%"class.llvm::MCDwarfLoc" = type { i32, i32, i16, i8, i8, i32 }
%"class.llvm::SetVector" = type { %"class.llvm::DenseSet", %"class.llvm::SmallVector.68" }
%"class.llvm::DenseSet" = type { %"class.llvm::detail::DenseSetImpl" }
%"class.llvm::detail::DenseSetImpl" = type { %"class.llvm::DenseMap.65" }
%"class.llvm::DenseMap.65" = type <{ ptr, i32, i32, i32, [4 x i8] }>
%"class.llvm::SmallVector.68" = type { %"class.llvm::SmallVectorImpl.69" }
%"class.llvm::SmallVectorImpl.69" = type { %"class.llvm::SmallVectorTemplateBase.70" }
%"class.llvm::SmallVectorTemplateBase.70" = type { %"class.llvm::SmallVectorTemplateCommon.71" }
%"class.llvm::SmallVectorTemplateCommon.71" = type { %"class.llvm::SmallVectorBase" }
%"class.std::vector.73" = type { %"struct.std::_Vector_base.74" }
%"struct.std::_Vector_base.74" = type { %"struct.std::_Vector_base<llvm::MCGenDwarfLabelEntry, std::allocator<llvm::MCGenDwarfLabelEntry>>::_Vector_impl" }
%"struct.std::_Vector_base<llvm::MCGenDwarfLabelEntry, std::allocator<llvm::MCGenDwarfLabelEntry>>::_Vector_impl" = type { %"struct.std::_Vector_base<llvm::MCGenDwarfLabelEntry, std::allocator<llvm::MCGenDwarfLabelEntry>>::_Vector_impl_data" }
%"struct.std::_Vector_base<llvm::MCGenDwarfLabelEntry, std::allocator<llvm::MCGenDwarfLabelEntry>>::_Vector_impl_data" = type { ptr, ptr, ptr }
%"class.llvm::MCPseudoProbeTable" = type { %"class.llvm::MCPseudoProbeSections" }
%"class.llvm::MCPseudoProbeSections" = type { %"class.std::unordered_map" }
%"class.std::unordered_map" = type { %"class.std::_Hashtable" }
%"class.std::_Hashtable" = type { ptr, i64, %"struct.std::__detail::_Hash_node_base", i64, %"struct.std::__detail::_Prime_rehash_policy", ptr }
%"struct.std::__detail::_Hash_node_base" = type { ptr }
%"struct.std::__detail::_Prime_rehash_policy" = type { float, i64 }
%"class.llvm::StringMap.83" = type { %"class.llvm::StringMapImpl" }
%"class.std::map.84" = type { %"class.std::_Rb_tree.85" }
%"class.std::_Rb_tree.85" = type { %"struct.std::_Rb_tree<llvm::MCContext::COFFSectionKey, std::pair<const llvm::MCContext::COFFSectionKey, llvm::MCSectionCOFF *>, std::_Select1st<std::pair<const llvm::MCContext::COFFSectionKey, llvm::MCSectionCOFF *>>, std::less<llvm::MCContext::COFFSectionKey>>::_Rb_tree_impl" }
%"struct.std::_Rb_tree<llvm::MCContext::COFFSectionKey, std::pair<const llvm::MCContext::COFFSectionKey, llvm::MCSectionCOFF *>, std::_Select1st<std::pair<const llvm::MCContext::COFFSectionKey, llvm::MCSectionCOFF *>>, std::less<llvm::MCContext::COFFSectionKey>>::_Rb_tree_impl" = type { [8 x i8], %"struct.std::_Rb_tree_header" }
%"class.llvm::StringMap.90" = type { %"class.llvm::StringMapImpl" }
%"class.std::map.91" = type { %"class.std::_Rb_tree.92" }
%"class.std::_Rb_tree.92" = type { %"struct.std::_Rb_tree<std::__cxx11::basic_string<char>, std::pair<const std::__cxx11::basic_string<char>, llvm::MCSectionGOFF *>, std::_Select1st<std::pair<const std::__cxx11::basic_string<char>, llvm::MCSectionGOFF *>>, std::less<std::__cxx11::basic_string<char>>>::_Rb_tree_impl" }
%"struct.std::_Rb_tree<std::__cxx11::basic_string<char>, std::pair<const std::__cxx11::basic_string<char>, llvm::MCSectionGOFF *>, std::_Select1st<std::pair<const std::__cxx11::basic_string<char>, llvm::MCSectionGOFF *>>, std::less<std::__cxx11::basic_string<char>>>::_Rb_tree_impl" = type { [8 x i8], %"struct.std::_Rb_tree_header" }
%"class.std::map.97" = type { %"class.std::_Rb_tree.98" }
%"class.std::_Rb_tree.98" = type { %"struct.std::_Rb_tree<llvm::MCContext::WasmSectionKey, std::pair<const llvm::MCContext::WasmSectionKey, llvm::MCSectionWasm *>, std::_Select1st<std::pair<const llvm::MCContext::WasmSectionKey, llvm::MCSectionWasm *>>, std::less<llvm::MCContext::WasmSectionKey>>::_Rb_tree_impl" }
%"struct.std::_Rb_tree<llvm::MCContext::WasmSectionKey, std::pair<const llvm::MCContext::WasmSectionKey, llvm::MCSectionWasm *>, std::_Select1st<std::pair<const llvm::MCContext::WasmSectionKey, llvm::MCSectionWasm *>>, std::less<llvm::MCContext::WasmSectionKey>>::_Rb_tree_impl" = type { [8 x i8], %"struct.std::_Rb_tree_header" }
%"class.std::map.103" = type { %"class.std::_Rb_tree.104" }
%"class.std::_Rb_tree.104" = type { %"struct.std::_Rb_tree<llvm::MCContext::XCOFFSectionKey, std::pair<const llvm::MCContext::XCOFFSectionKey, llvm::MCSectionXCOFF *>, std::_Select1st<std::pair<const llvm::MCContext::XCOFFSectionKey, llvm::MCSectionXCOFF *>>, std::less<llvm::MCContext::XCOFFSectionKey>>::_Rb_tree_impl" }
%"struct.std::_Rb_tree<llvm::MCContext::XCOFFSectionKey, std::pair<const llvm::MCContext::XCOFFSectionKey, llvm::MCSectionXCOFF *>, std::_Select1st<std::pair<const llvm::MCContext::XCOFFSectionKey, llvm::MCSectionXCOFF *>>, std::less<llvm::MCContext::XCOFFSectionKey>>::_Rb_tree_impl" = type { [8 x i8], %"struct.std::_Rb_tree_header" }
%"class.llvm::StringMap.109" = type { %"class.llvm::StringMapImpl" }
%"class.llvm::StringMap.110" = type { %"class.llvm::StringMapImpl" }
%"class.llvm::SpecificBumpPtrAllocator.111" = type { %"class.llvm::BumpPtrAllocatorImpl" }
%"class.llvm::StringMap.112" = type { %"class.llvm::StringMapImpl" }
%"class.llvm::DenseMap.113" = type <{ ptr, i32, i32, i32, [4 x i8] }>
%"class.llvm::DenseSet.116" = type { %"class.llvm::detail::DenseSetImpl.117" }
%"class.llvm::detail::DenseSetImpl.117" = type { %"class.llvm::DenseMap.118" }
%"class.llvm::DenseMap.118" = type <{ ptr, i32, i32, i32, [4 x i8] }>

; Function Attrs: mustprogress nounwind uwtable
define linkonce_odr hidden noundef ptr @_ZN4llvm16cast_convert_valINS_13MCSectionCOFFEPNS_9MCSectionES3_E4doitEPKS2_(ptr noundef %0) #1 comdat align 2 {
  %2 = alloca ptr, align 8
  store ptr %0, ptr %2, align 8
  %3 = load ptr, ptr %2, align 8
  ret ptr %3
}

; Function Attrs: mustprogress nounwind uwtable
define linkonce_odr hidden noundef ptr @_ZN4llvm8CastInfoINS_13MCSectionCOFFEPNS_9MCSectionEvE6doCastERKS3_(ptr noundef nonnull align 8 dereferenceable(8) %0) #1 comdat align 2 {
  %2 = alloca ptr, align 8
  store ptr %0, ptr %2, align 8
  %3 = load ptr, ptr %2, align 8
  %4 = load ptr, ptr %3, align 8
  %5 = call noundef ptr @_ZN4llvm16cast_convert_valINS_13MCSectionCOFFEPNS_9MCSectionES3_E4doitEPKS2_(ptr noundef %4)
  ret ptr %5
}

; Function Attrs: mustprogress nounwind uwtable
define linkonce_odr hidden noundef ptr @_ZN4llvm4castINS_13MCSectionCOFFENS_9MCSectionEEEDcPT0_(ptr noundef %0) #1 comdat {
  %2 = alloca ptr, align 8
  store ptr %0, ptr %2, align 8
  %3 = call noundef ptr @_ZN4llvm8CastInfoINS_13MCSectionCOFFEPNS_9MCSectionEvE6doCastERKS3_(ptr noundef nonnull align 8 dereferenceable(8) %2)
  ret ptr %3
}

; Function Attrs: mustprogress nounwind uwtable
define linkonce_odr hidden noundef nonnull align 8 dereferenceable(56) ptr @_ZNK4llvm9MCContext15getTargetTripleEv(ptr noundef nonnull align 8 dereferenceable(2432) %0) #1 comdat align 2 {
  %2 = alloca ptr, align 8
  store ptr %0, ptr %2, align 8
  %3 = load ptr, ptr %2, align 8
  %4 = getelementptr inbounds nuw %"class.llvm::MCContext", ptr %3, i32 0, i32 2
  ret ptr %4
}

; Function Attrs: mustprogress nounwind uwtable
define linkonce_odr hidden noundef nonnull align 8 dereferenceable(2432) ptr @_ZNK4llvm16MCObjectFileInfo10getContextEv(ptr noundef nonnull align 8 dereferenceable(912) %0) #1 comdat align 2 {
  %2 = alloca ptr, align 8
  store ptr %0, ptr %2, align 8
  %3 = load ptr, ptr %2, align 8
  %4 = getelementptr inbounds nuw %"class.llvm::MCObjectFileInfo", ptr %3, i32 0, i32 106
  %5 = load ptr, ptr %4, align 8
  ret ptr %5
}

; Function Attrs: mustprogress nounwind uwtable
define dso_local noundef ptr @_ZNK4llvm28TargetLoweringObjectFileCOFF20getStaticCtorSectionEjPKNS_8MCSymbolE(ptr noundef nonnull align 8 dereferenceable(984) %0, i32 noundef %1, ptr noundef %2) unnamed_addr #1 align 2 {
  %4 = alloca ptr, align 8
  %5 = alloca i32, align 4
  %6 = alloca ptr, align 8
  store ptr %0, ptr %4, align 8
  store i32 %1, ptr %5, align 4
  store ptr %2, ptr %6, align 8
  %7 = load ptr, ptr %4, align 8
  %8 = call noundef nonnull align 8 dereferenceable(2432) ptr @_ZNK4llvm16MCObjectFileInfo10getContextEv(ptr noundef nonnull align 8 dereferenceable(912) %7)
  %9 = call noundef nonnull align 8 dereferenceable(2432) ptr @_ZNK4llvm16MCObjectFileInfo10getContextEv(ptr noundef nonnull align 8 dereferenceable(912) %7)
  %10 = call noundef nonnull align 8 dereferenceable(56) ptr @_ZNK4llvm9MCContext15getTargetTripleEv(ptr noundef nonnull align 8 dereferenceable(2432) %9)
  %11 = load i32, ptr %5, align 4
  %12 = load ptr, ptr %6, align 8
  %13 = getelementptr inbounds nuw %"class.llvm::TargetLoweringObjectFile", ptr %7, i32 0, i32 10
  %14 = load ptr, ptr %13, align 8
  %15 = call noundef ptr @_ZN4llvm4castINS_13MCSectionCOFFENS_9MCSectionEEEDcPT0_(ptr noundef %14)
  %16 = call noundef ptr @_ZL28getCOFFStaticStructorSectionRN4llvm9MCContextERKNS_6TripleEbjPKNS_8MCSymbolEPNS_13MCSectionCOFFE(ptr noundef nonnull align 8 dereferenceable(2432) %8, ptr noundef nonnull align 8 dereferenceable(56) %10, i1 noundef zeroext true, i32 noundef %11, ptr noundef %12, ptr noundef %15)
  ret ptr %16
}